target datalayout = "e-m:e-p270:32:32-p271:32:32-p272:64:64-i64:64-i128:128-f80:128-n8:16:32:64-S128"
target triple = "x86_64-pc-linux-gnu"

%struct.mbedtls_hmac_drbg_context = type { %struct.mbedtls_md_context_t, [64 x i8], i32, i64, i32, i32, ptr, ptr }
%struct.mbedtls_md_context_t = type { ptr, ptr, ptr }

; Function Attrs: nounwind uwtable
define hidden i32 @mbedtls_hmac_drbg_update(ptr noundef %0, ptr noundef %1, i64 noundef %2) #0 {
  %4 = alloca ptr, align 8
  %5 = alloca ptr, align 8
  %6 = alloca i64, align 8
  %7 = alloca i64, align 8
  %8 = alloca i8, align 1
  %9 = alloca [1 x i8], align 1
  %10 = alloca [64 x i8], align 16
  %11 = alloca i32, align 4
  store ptr %0, ptr %4, align 8, !tbaa !3
  store ptr %1, ptr %5, align 8, !tbaa !14
  store i64 %2, ptr %6, align 8, !tbaa !16
  call void @llvm.lifetime.start.p0(i64 8, ptr %7) #7
  %12 = load ptr, ptr %4, align 8, !tbaa !3
  %13 = getelementptr inbounds nuw %struct.mbedtls_hmac_drbg_context, ptr %12, i32 0, i32 0
  %14 = getelementptr inbounds nuw %struct.mbedtls_md_context_t, ptr %13, i32 0, i32 0
  %15 = load ptr, ptr %14, align 8, !tbaa !17
  %16 = call zeroext i8 @mbedtls_md_get_size(ptr noundef %15)
  %17 = zext i8 %16 to i64
  store i64 %17, ptr %7, align 8, !tbaa !16
  call void @llvm.lifetime.start.p0(i64 1, ptr %8) #7
  %18 = load ptr, ptr %5, align 8, !tbaa !14
  %19 = icmp ne ptr %18, null
  br i1 %19, label %20, label %23

20:                                               ; preds = %3
  %21 = load i64, ptr %6, align 8, !tbaa !16
  %22 = icmp ne i64 %21, 0
  br label %23

23:                                               ; preds = %20, %3
  %24 = phi i1 [ false, %3 ], [ %22, %20 ]
  %25 = select i1 %24, i32 2, i32 1
  %26 = trunc i32 %25 to i8
  store i8 %26, ptr %8, align 1, !tbaa !18
  call void @llvm.lifetime.start.p0(i64 1, ptr %9) #7
  call void @llvm.lifetime.start.p0(i64 64, ptr %10) #7
  call void @llvm.lifetime.start.p0(i64 4, ptr %11) #7
  store i32 -20736, ptr %11, align 4, !tbaa !19
  %27 = getelementptr inbounds [1 x i8], ptr %9, i64 0, i64 0
  store i8 0, ptr %27, align 1, !tbaa !18
  br label %28

28:                                               ; preds = %106, %23
  %29 = getelementptr inbounds [1 x i8], ptr %9, i64 0, i64 0
  %30 = load i8, ptr %29, align 1, !tbaa !18
  %31 = zext i8 %30 to i32
  %32 = load i8, ptr %8, align 1, !tbaa !18
  %33 = zext i8 %32 to i32
  %34 = icmp slt i32 %31, %33
  br i1 %34, label %35, label %110

35:                                               ; preds = %28
  %36 = load ptr, ptr %4, align 8, !tbaa !3
  %37 = getelementptr inbounds nuw %struct.mbedtls_hmac_drbg_context, ptr %36, i32 0, i32 0
  %38 = call i32 @mbedtls_md_hmac_reset(ptr noundef %37)
  store i32 %38, ptr %11, align 4, !tbaa !19
  %39 = icmp ne i32 %38, 0
  br i1 %39, label %40, label %41

40:                                               ; preds = %35
  br label %111

41:                                               ; preds = %35
  %42 = load ptr, ptr %4, align 8, !tbaa !3
  %43 = getelementptr inbounds nuw %struct.mbedtls_hmac_drbg_context, ptr %42, i32 0, i32 0
  %44 = load ptr, ptr %4, align 8, !tbaa !3
  %45 = getelementptr inbounds nuw %struct.mbedtls_hmac_drbg_context, ptr %44, i32 0, i32 1
  %46 = getelementptr inbounds [64 x i8], ptr %45, i64 0, i64 0
  %47 = load i64, ptr %7, align 8, !tbaa !16
  %48 = call i32 @mbedtls_md_hmac_update(ptr noundef %43, ptr noundef %46, i64 noundef %47)
  store i32 %48, ptr %11, align 4, !tbaa !19
  %49 = icmp ne i32 %48, 0
  br i1 %49, label %50, label %51

50:                                               ; preds = %41
  br label %111

51:                                               ; preds = %41
  %52 = load ptr, ptr %4, align 8, !tbaa !3
  %53 = getelementptr inbounds nuw %struct.mbedtls_hmac_drbg_context, ptr %52, i32 0, i32 0
  %54 = getelementptr inbounds [1 x i8], ptr %9, i64 0, i64 0
  %55 = call i32 @mbedtls_md_hmac_update(ptr noundef %53, ptr noundef %54, i64 noundef 1)
  store i32 %55, ptr %11, align 4, !tbaa !19
  %56 = icmp ne i32 %55, 0
  br i1 %56, label %57, label %58

57:                                               ; preds = %51
  br label %111

58:                                               ; preds = %51
  %59 = load i8, ptr %8, align 1, !tbaa !18
  %60 = zext i8 %59 to i32
  %61 = icmp eq i32 %60, 2
  br i1 %61, label %62, label %71

62:                                               ; preds = %58
  %63 = load ptr, ptr %4, align 8, !tbaa !3
  %64 = getelementptr inbounds nuw %struct.mbedtls_hmac_drbg_context, ptr %63, i32 0, i32 0
  %65 = load ptr, ptr %5, align 8, !tbaa !14
  %66 = load i64, ptr %6, align 8, !tbaa !16
  %67 = call i32 @mbedtls_md_hmac_update(ptr noundef %64, ptr noundef %65, i64 noundef %66)
  store i32 %67, ptr %11, align 4, !tbaa !19
  %68 = icmp ne i32 %67, 0
  br i1 %68, label %69, label %70

69:                                               ; preds = %62
  br label %111

70:                                               ; preds = %62
  br label %71

71:                                               ; preds = %70, %58
  %72 = load ptr, ptr %4, align 8, !tbaa !3
  %73 = getelementptr inbounds nuw %struct.mbedtls_hmac_drbg_context, ptr %72, i32 0, i32 0
  %74 = getelementptr inbounds [64 x i8], ptr %10, i64 0, i64 0
  %75 = call i32 @mbedtls_md_hmac_finish(ptr noundef %73, ptr noundef %74)
  store i32 %75, ptr %11, align 4, !tbaa !19
  %76 = icmp ne i32 %75, 0
  br i1 %76, label %77, label %78

77:                                               ; preds = %71
  br label %111

78:                                               ; preds = %71
  %79 = load ptr, ptr %4, align 8, !tbaa !3
  %80 = getelementptr inbounds nuw %struct.mbedtls_hmac_drbg_context, ptr %79, i32 0, i32 0
  %81 = getelementptr inbounds [64 x i8], ptr %10, i64 0, i64 0
  %82 = load i64, ptr %7, align 8, !tbaa !16
  %83 = call i32 @mbedtls_md_hmac_starts(ptr noundef %80, ptr noundef %81, i64 noundef %82)
  store i32 %83, ptr %11, align 4, !tbaa !19
  %84 = icmp ne i32 %83, 0
  br i1 %84, label %85, label %86

85:                                               ; preds = %78
  br label %111

86:                                               ; preds = %78
  %87 = load ptr, ptr %4, align 8, !tbaa !3
  %88 = getelementptr inbounds nuw %struct.mbedtls_hmac_drbg_context, ptr %87, i32 0, i32 0
  %89 = load ptr, ptr %4, align 8, !tbaa !3
  %90 = getelementptr inbounds nuw %struct.mbedtls_hmac_drbg_context, ptr %89, i32 0, i32 1
  %91 = getelementptr inbounds [64 x i8], ptr %90, i64 0, i64 0
  %92 = load i64, ptr %7, align 8, !tbaa !16
  %93 = call i32 @mbedtls_md_hmac_update(ptr noundef %88, ptr noundef %91, i64 noundef %92)
  store i32 %93, ptr %11, align 4, !tbaa !19
  %94 = icmp ne i32 %93, 0
  br i1 %94, label %95, label %96

95:                                               ; preds = %86
  br label %111

96:                                               ; preds = %86
  %97 = load ptr, ptr %4, align 8, !tbaa !3
  %98 = getelementptr inbounds nuw %struct.mbedtls_hmac_drbg_context, ptr %97, i32 0, i32 0
  %99 = load ptr, ptr %4, align 8, !tbaa !3
  %100 = getelementptr inbounds nuw %struct.mbedtls_hmac_drbg_context, ptr %99, i32 0, i32 1
  %101 = getelementptr inbounds [64 x i8], ptr %100, i64 0, i64 0
  %102 = call i32 @mbedtls_md_hmac_finish(ptr noundef %98, ptr noundef %101)
  store i32 %102, ptr %11, align 4, !tbaa !19
  %103 = icmp ne i32 %102, 0
  br i1 %103, label %104, label %105

104:                                              ; preds = %96
  br label %111

105:                                              ; preds = %96
  br label %106

106:                                              ; preds = %105
  %107 = getelementptr inbounds [1 x i8], ptr %9, i64 0, i64 0
  %108 = load i8, ptr %107, align 1, !tbaa !18
  %109 = add i8 %108, 1
  store i8 %109, ptr %107, align 1, !tbaa !18
  br label %28, !llvm.loop !20

110:                                              ; preds = %28
  br label %111

111:                                              ; preds = %110, %104, %95, %85, %77, %69, %57, %50, %40
  %112 = getelementptr inbounds [64 x i8], ptr %10, i64 0, i64 0
  call void @mbedtls_platform_zeroize(ptr noundef %112, i64 noundef 64)
  %113 = load i32, ptr %11, align 4, !tbaa !19
  call void @llvm.lifetime.end.p0(i64 4, ptr %11) #7
  call void @llvm.lifetime.end.p0(i64 64, ptr %10) #7
  call void @llvm.lifetime.end.p0(i64 1, ptr %9) #7
  call void @llvm.lifetime.end.p0(i64 1, ptr %8) #7
  call void @llvm.lifetime.end.p0(i64 8, ptr %7) #7
  ret i32 %113
}