; Function Attrs: nounwind uwtable
define hidden i32 @mbedtls_hmac_drbg_update(ptr noundef %0, ptr noundef %1, i64 noundef %2) local_unnamed_addr #2 {
  %4 = alloca [1 x i8], align 1
  %5 = alloca [64 x i8], align 16
  %6 = load ptr, ptr %0, align 8, !tbaa !12
  %7 = tail call zeroext i8 @mbedtls_md_get_size(ptr noundef %6) #12
  %8 = zext i8 %7 to i64
  %9 = icmp ne ptr %1, null
  %10 = icmp ne i64 %2, 0
  %11 = and i1 %9, %10
  call void @llvm.lifetime.start.p0(i64 1, ptr nonnull %4) #12
  call void @llvm.lifetime.start.p0(i64 64, ptr nonnull %5) #12
  %12 = getelementptr inbounds nuw i8, ptr %0, i64 24
  store i8 0, ptr %4, align 1, !tbaa !13
  br i1 %11, label %.split.us, label %.split

.split.us:                                        ; preds = %3, %28
  %13 = call i32 @mbedtls_md_hmac_reset(ptr noundef nonnull %0) #12
  %.not.us = icmp eq i32 %13, 0
  br i1 %.not.us, label %14, label %.split39.us

14:                                               ; preds = %.split.us
  %15 = call i32 @mbedtls_md_hmac_update(ptr noundef nonnull %0, ptr noundef nonnull %12, i64 noundef %8) #12
  %.not31.us = icmp eq i32 %15, 0
  br i1 %.not31.us, label %16, label %.split39.us

16:                                               ; preds = %14
  %17 = call i32 @mbedtls_md_hmac_update(ptr noundef nonnull %0, ptr noundef nonnull %4, i64 noundef 1) #12
  %.not32.us = icmp eq i32 %17, 0
  br i1 %.not32.us, label %18, label %.split39.us

18:                                               ; preds = %16
  %19 = call i32 @mbedtls_md_hmac_update(ptr noundef nonnull %0, ptr noundef nonnull %1, i64 noundef %2) #12
  %.not33.us = icmp eq i32 %19, 0
  br i1 %.not33.us, label %20, label %.split39.us

20:                                               ; preds = %18
  %21 = call i32 @mbedtls_md_hmac_finish(ptr noundef nonnull %0, ptr noundef nonnull %5) #12
  %.not34.us = icmp eq i32 %21, 0
  br i1 %.not34.us, label %22, label %.split39.us

22:                                               ; preds = %20
  %23 = call i32 @mbedtls_md_hmac_starts(ptr noundef nonnull %0, ptr noundef nonnull %5, i64 noundef %8) #12
  %.not35.us = icmp eq i32 %23, 0
  br i1 %.not35.us, label %24, label %.split39.us

24:                                               ; preds = %22
  %25 = call i32 @mbedtls_md_hmac_update(ptr noundef nonnull %0, ptr noundef nonnull %12, i64 noundef %8) #12
  %.not36.us = icmp eq i32 %25, 0
  br i1 %.not36.us, label %26, label %.split39.us

26:                                               ; preds = %24
  %27 = call i32 @mbedtls_md_hmac_finish(ptr noundef nonnull %0, ptr noundef nonnull %12) #12
  %.not37.us = icmp eq i32 %27, 0
  br i1 %.not37.us, label %28, label %.split39.us

28:                                               ; preds = %26
  %29 = load i8, ptr %4, align 1, !tbaa !13
  %30 = add i8 %29, 1
  store i8 %30, ptr %4, align 1, !tbaa !13
  %31 = icmp ult i8 %30, 2
  br i1 %31, label %.split.us, label %.split39.us, !llvm.loop !14

.split:                                           ; preds = %3, %45
  %32 = call i32 @mbedtls_md_hmac_reset(ptr noundef nonnull %0) #12
  %.not = icmp eq i32 %32, 0
  br i1 %.not, label %33, label %.split39.us

33:                                               ; preds = %.split
  %34 = call i32 @mbedtls_md_hmac_update(ptr noundef nonnull %0, ptr noundef nonnull %12, i64 noundef %8) #12
  %.not31 = icmp eq i32 %34, 0
  br i1 %.not31, label %35, label %.split39.us

35:                                               ; preds = %33
  %36 = call i32 @mbedtls_md_hmac_update(ptr noundef nonnull %0, ptr noundef nonnull %4, i64 noundef 1) #12
  %.not32 = icmp eq i32 %36, 0
  br i1 %.not32, label %37, label %.split39.us

37:                                               ; preds = %35
  %38 = call i32 @mbedtls_md_hmac_finish(ptr noundef nonnull %0, ptr noundef nonnull %5) #12
  %.not34 = icmp eq i32 %38, 0
  br i1 %.not34, label %39, label %.split39.us

39:                                               ; preds = %37
  %40 = call i32 @mbedtls_md_hmac_starts(ptr noundef nonnull %0, ptr noundef nonnull %5, i64 noundef %8) #12
  %.not35 = icmp eq i32 %40, 0
  br i1 %.not35, label %41, label %.split39.us

41:                                               ; preds = %39
  %42 = call i32 @mbedtls_md_hmac_update(ptr noundef nonnull %0, ptr noundef nonnull %12, i64 noundef %8) #12
  %.not36 = icmp eq i32 %42, 0
  br i1 %.not36, label %43, label %.split39.us

43:                                               ; preds = %41
  %44 = call i32 @mbedtls_md_hmac_finish(ptr noundef nonnull %0, ptr noundef nonnull %12) #12
  %.not37 = icmp eq i32 %44, 0
  br i1 %.not37, label %45, label %.split39.us

45:                                               ; preds = %43
  %46 = load i8, ptr %4, align 1, !tbaa !13
  %47 = add i8 %46, 1
  store i8 %47, ptr %4, align 1, !tbaa !13
  %48 = icmp eq i8 %47, 0
  br i1 %48, label %.split, label %.split39.us, !llvm.loop !14

.split39.us:                                      ; preds = %.split, %33, %35, %37, %39, %41, %43, %45, %.split.us, %14, %16, %18, %20, %22, %24, %26, %28
  %.us-phi = phi i32 [ %13, %.split.us ], [ %15, %14 ], [ %17, %16 ], [ %19, %18 ], [ %21, %20 ], [ %23, %22 ], [ %25, %24 ], [ %27, %26 ], [ 0, %28 ], [ %32, %.split ], [ %34, %33 ], [ %36, %35 ], [ %38, %37 ], [ %40, %39 ], [ %42, %41 ], [ %44, %43 ], [ 0, %45 ]
  call void @mbedtls_platform_zeroize(ptr noundef nonnull %5, i64 noundef 64) #12
  call void @llvm.lifetime.end.p0(i64 64, ptr nonnull %5) #12
  call void @llvm.lifetime.end.p0(i64 1, ptr nonnull %4) #12
  ret i32 %.us-phi
}